target datalayout = "e-m:e-p270:32:32-p271:32:32-p272:64:64-i64:64-i128:128-f80:128-n8:16:32:64-S128"
target triple = "x86_64-pc-linux-gnu"

%struct.ident_t = type { i32, i32, i32, i32, ptr }

@1 = private unnamed_addr constant %struct.ident_t { i32 0, i32 514, i32 0, i32 22, ptr @0 }, align 8
@2 = private unnamed_addr constant %struct.ident_t { i32 0, i32 66, i32 0, i32 22, ptr @0 }, align 8

; Function Attrs: alwaysinline norecurse nounwind uwtable
define internal void @statevec_pauliXLocal.omp_outlined(ptr noalias noundef %0, ptr noalias noundef %1, ptr noundef nonnull align 8 dereferenceable(8) %2, ptr noundef nonnull align 8 dereferenceable(8) %3, ptr noundef nonnull align 8 dereferenceable(8) %4, ptr noundef nonnull align 8 dereferenceable(8) %5, ptr noundef nonnull align 8 dereferenceable(8) %6) #2 {
  %8 = alloca ptr, align 8
  %9 = alloca ptr, align 8
  %10 = alloca ptr, align 8
  %11 = alloca ptr, align 8
  %12 = alloca ptr, align 8
  %13 = alloca ptr, align 8
  %14 = alloca ptr, align 8
  %15 = alloca i64, align 8
  %16 = alloca i64, align 8
  %17 = alloca i64, align 8
  %18 = alloca double, align 8
  %19 = alloca double, align 8
  %20 = alloca i64, align 8
  %21 = alloca i64, align 8
  %22 = alloca i64, align 8
  %23 = alloca i64, align 8
  %24 = alloca i64, align 8
  %25 = alloca i64, align 8
  %26 = alloca i64, align 8
  %27 = alloca i32, align 4
  %28 = alloca i64, align 8
  store ptr %0, ptr %8, align 8, !tbaa !19
  store ptr %1, ptr %9, align 8, !tbaa !19
  store ptr %2, ptr %10, align 8, !tbaa !21
  store ptr %3, ptr %11, align 8, !tbaa !21
  store ptr %4, ptr %12, align 8, !tbaa !21
  store ptr %5, ptr %13, align 8, !tbaa !33
  store ptr %6, ptr %14, align 8, !tbaa !33
  %29 = load ptr, ptr %10, align 8, !tbaa !21
  %30 = load ptr, ptr %11, align 8, !tbaa !21
  %31 = load ptr, ptr %12, align 8, !tbaa !21
  %32 = load ptr, ptr %13, align 8, !tbaa !33
  %33 = load ptr, ptr %14, align 8, !tbaa !33
  call void @llvm.lifetime.start.p0(i64 8, ptr %15) #3
  call void @llvm.lifetime.start.p0(i64 8, ptr %16) #3
  call void @llvm.lifetime.start.p0(i64 8, ptr %17) #3
  call void @llvm.lifetime.start.p0(i64 8, ptr %18) #3
  call void @llvm.lifetime.start.p0(i64 8, ptr %19) #3
  call void @llvm.lifetime.start.p0(i64 8, ptr %20) #3
  call void @llvm.lifetime.start.p0(i64 8, ptr %21) #3
  %34 = load i64, ptr %29, align 8, !tbaa !4
  store i64 %34, ptr %21, align 8, !tbaa !4
  call void @llvm.lifetime.start.p0(i64 8, ptr %22) #3
  %35 = load i64, ptr %21, align 8, !tbaa !4
  %36 = sub nsw i64 %35, 0
  %37 = sdiv i64 %36, 1
  %38 = sub nsw i64 %37, 1
  store i64 %38, ptr %22, align 8, !tbaa !4
  call void @llvm.lifetime.start.p0(i64 8, ptr %23) #3
  store i64 0, ptr %23, align 8, !tbaa !4
  call void @llvm.lifetime.end.p0(i64 8, ptr %23) #3
  %39 = load i64, ptr %21, align 8, !tbaa !4
  %40 = icmp slt i64 0, %39
  br i1 %40, label %41, label %115

41:                                               ; preds = %7
  call void @llvm.lifetime.start.p0(i64 8, ptr %24) #3
  store i64 0, ptr %24, align 8, !tbaa !4
  call void @llvm.lifetime.start.p0(i64 8, ptr %25) #3
  %42 = load i64, ptr %22, align 8, !tbaa !4
  store i64 %42, ptr %25, align 8, !tbaa !4
  call void @llvm.lifetime.start.p0(i64 8, ptr %26) #3
  store i64 1, ptr %26, align 8, !tbaa !4
  call void @llvm.lifetime.start.p0(i64 4, ptr %27) #3
  store i32 0, ptr %27, align 4, !tbaa !8
  call void @llvm.lifetime.start.p0(i64 8, ptr %28) #3
  %43 = load ptr, ptr %8, align 8
  %44 = load i32, ptr %43, align 4, !tbaa !8
  call void @__kmpc_for_static_init_8(ptr @1, i32 %44, i32 34, ptr %27, ptr %24, ptr %25, ptr %26, i64 1, i64 1)
  %45 = load i64, ptr %25, align 8, !tbaa !4
  %46 = load i64, ptr %22, align 8, !tbaa !4
  %47 = icmp sgt i64 %45, %46
  br i1 %47, label %48, label %50

48:                                               ; preds = %41
  %49 = load i64, ptr %22, align 8, !tbaa !4
  br label %52

50:                                               ; preds = %41
  %51 = load i64, ptr %25, align 8, !tbaa !4
  br label %52

52:                                               ; preds = %50, %48
  %53 = phi i64 [ %49, %48 ], [ %51, %50 ]
  store i64 %53, ptr %25, align 8, !tbaa !4
  %54 = load i64, ptr %24, align 8, !tbaa !4
  store i64 %54, ptr %20, align 8, !tbaa !4
  br label %55

55:                                               ; preds = %108, %52
  %56 = load i64, ptr %20, align 8, !tbaa !4
  %57 = load i64, ptr %25, align 8, !tbaa !4
  %58 = icmp sle i64 %56, %57
  br i1 %58, label %60, label %59

59:                                               ; preds = %55
  br label %111

60:                                               ; preds = %55
  %61 = load i64, ptr %20, align 8, !tbaa !4
  %62 = mul nsw i64 %61, 1
  %63 = add nsw i64 0, %62
  store i64 %63, ptr %28, align 8, !tbaa !4
  %64 = load i64, ptr %28, align 8, !tbaa !4
  %65 = load i64, ptr %30, align 8, !tbaa !4
  %66 = sdiv i64 %64, %65
  store i64 %66, ptr %15, align 8, !tbaa !4
  %67 = load i64, ptr %15, align 8, !tbaa !4
  %68 = load i64, ptr %31, align 8, !tbaa !4
  %69 = mul nsw i64 %67, %68
  %70 = load i64, ptr %28, align 8, !tbaa !4
  %71 = load i64, ptr %30, align 8, !tbaa !4
  %72 = srem i64 %70, %71
  %73 = add nsw i64 %69, %72
  store i64 %73, ptr %16, align 8, !tbaa !4
  %74 = load i64, ptr %16, align 8, !tbaa !4
  %75 = load i64, ptr %30, align 8, !tbaa !4
  %76 = add nsw i64 %74, %75
  store i64 %76, ptr %17, align 8, !tbaa !4
  %77 = load ptr, ptr %32, align 8, !tbaa !25
  %78 = load i64, ptr %16, align 8, !tbaa !4
  %79 = getelementptr inbounds double, ptr %77, i64 %78
  %80 = load double, ptr %79, align 8, !tbaa !10
  store double %80, ptr %18, align 8, !tbaa !10
  %81 = load ptr, ptr %33, align 8, !tbaa !25
  %82 = load i64, ptr %16, align 8, !tbaa !4
  %83 = getelementptr inbounds double, ptr %81, i64 %82
  %84 = load double, ptr %83, align 8, !tbaa !10
  store double %84, ptr %19, align 8, !tbaa !10
  %85 = load ptr, ptr %32, align 8, !tbaa !25
  %86 = load i64, ptr %17, align 8, !tbaa !4
  %87 = getelementptr inbounds double, ptr %85, i64 %86
  %88 = load double, ptr %87, align 8, !tbaa !10
  %89 = load ptr, ptr %32, align 8, !tbaa !25
  %90 = load i64, ptr %16, align 8, !tbaa !4
  %91 = getelementptr inbounds double, ptr %89, i64 %90
  store double %88, ptr %91, align 8, !tbaa !10
  %92 = load ptr, ptr %33, align 8, !tbaa !25
  %93 = load i64, ptr %17, align 8, !tbaa !4
  %94 = getelementptr inbounds double, ptr %92, i64 %93
  %95 = load double, ptr %94, align 8, !tbaa !10
  %96 = load ptr, ptr %33, align 8, !tbaa !25
  %97 = load i64, ptr %16, align 8, !tbaa !4
  %98 = getelementptr inbounds double, ptr %96, i64 %97
  store double %95, ptr %98, align 8, !tbaa !10
  %99 = load double, ptr %18, align 8, !tbaa !10
  %100 = load ptr, ptr %32, align 8, !tbaa !25
  %101 = load i64, ptr %17, align 8, !tbaa !4
  %102 = getelementptr inbounds double, ptr %100, i64 %101
  store double %99, ptr %102, align 8, !tbaa !10
  %103 = load double, ptr %19, align 8, !tbaa !10
  %104 = load ptr, ptr %33, align 8, !tbaa !25
  %105 = load i64, ptr %17, align 8, !tbaa !4
  %106 = getelementptr inbounds double, ptr %104, i64 %105
  store double %103, ptr %106, align 8, !tbaa !10
  br label %107

107:                                              ; preds = %60
  br label %108

108:                                              ; preds = %107
  %109 = load i64, ptr %20, align 8, !tbaa !4
  %110 = add nsw i64 %109, 1
  store i64 %110, ptr %20, align 8, !tbaa !4
  br label %55

111:                                              ; preds = %59
  br label %112

112:                                              ; preds = %111
  %113 = load ptr, ptr %8, align 8
  %114 = load i32, ptr %113, align 4, !tbaa !8
  call void @__kmpc_for_static_fini(ptr @1, i32 %114)
  call void @llvm.lifetime.end.p0(i64 8, ptr %28) #3
  call void @llvm.lifetime.end.p0(i64 4, ptr %27) #3
  call void @llvm.lifetime.end.p0(i64 8, ptr %26) #3
  call void @llvm.lifetime.end.p0(i64 8, ptr %25) #3
  call void @llvm.lifetime.end.p0(i64 8, ptr %24) #3
  br label %115

115:                                              ; preds = %112, %7
  call void @llvm.lifetime.end.p0(i64 8, ptr %22) #3
  call void @llvm.lifetime.end.p0(i64 8, ptr %21) #3
  call void @llvm.lifetime.end.p0(i64 8, ptr %20) #3
  %116 = load ptr, ptr %8, align 8
  %117 = load i32, ptr %116, align 4, !tbaa !8
  call void @__kmpc_barrier(ptr @2, i32 %117)
  call void @llvm.lifetime.end.p0(i64 8, ptr %19) #3
  call void @llvm.lifetime.end.p0(i64 8, ptr %18) #3
  call void @llvm.lifetime.end.p0(i64 8, ptr %17) #3
  call void @llvm.lifetime.end.p0(i64 8, ptr %16) #3
  call void @llvm.lifetime.end.p0(i64 8, ptr %15) #3
  ret void
}