; Function Attrs: alwaysinline norecurse nounwind uwtable
define internal void @statevec_pauliXLocal.omp_outlined(ptr noalias noundef readonly captures(none) %0, ptr noalias readnone captures(none) %1, ptr noundef nonnull readonly align 8 captures(none) dereferenceable(8) %2, ptr noundef nonnull readonly align 8 captures(none) dereferenceable(8) %3, ptr noundef nonnull readonly align 8 captures(none) dereferenceable(8) %4, ptr noundef nonnull readonly align 8 captures(none) dereferenceable(8) %5, ptr noundef nonnull readonly align 8 captures(none) dereferenceable(8) %6) #3 {
  %8 = alloca i64, align 8
  %9 = alloca i64, align 8
  %10 = alloca i64, align 8
  %11 = alloca i32, align 4
  %12 = load i64, ptr %2, align 8, !tbaa !16
  %13 = icmp sgt i64 %12, 0
  %.pre = load i32, ptr %0, align 4, !tbaa !18
  br i1 %13, label %14, label %38

14:                                               ; preds = %7
  %15 = add nsw i64 %12, -1
  call void @llvm.lifetime.start.p0(i64 8, ptr nonnull %8) #4
  store i64 0, ptr %8, align 8, !tbaa !16
  call void @llvm.lifetime.start.p0(i64 8, ptr nonnull %9) #4
  store i64 %15, ptr %9, align 8, !tbaa !16
  call void @llvm.lifetime.start.p0(i64 8, ptr nonnull %10) #4
  store i64 1, ptr %10, align 8, !tbaa !16
  call void @llvm.lifetime.start.p0(i64 4, ptr nonnull %11) #4
  store i32 0, ptr %11, align 4, !tbaa !18
  call void @__kmpc_for_static_init_8(ptr nonnull @1, i32 %.pre, i32 34, ptr nonnull %11, ptr nonnull %8, ptr nonnull %9, ptr nonnull %10, i64 1, i64 1)
  %16 = load i64, ptr %9, align 8, !tbaa !16
  %17 = call i64 @llvm.smin.i64(i64 %16, i64 %15)
  store i64 %17, ptr %9, align 8, !tbaa !16
  %18 = load i64, ptr %8, align 8, !tbaa !16
  %.not29 = icmp sgt i64 %18, %17
  br i1 %.not29, label %._crit_edge, label %.lr.ph

.lr.ph:                                           ; preds = %14
  %19 = load i64, ptr %3, align 8, !tbaa !16
  %20 = load i64, ptr %4, align 8, !tbaa !16
  %21 = load ptr, ptr %5, align 8, !tbaa !26
  %22 = load ptr, ptr %6, align 8, !tbaa !26
  br label %23

23:                                               ; preds = %.lr.ph, %23
  %.030 = phi i64 [ %18, %.lr.ph ], [ %37, %23 ]
  %24 = sdiv i64 %.030, %19
  %25 = mul nsw i64 %20, %24
  %26 = srem i64 %.030, %19
  %27 = add nsw i64 %25, %26
  %28 = add nsw i64 %27, %19
  %29 = getelementptr inbounds double, ptr %21, i64 %27
  %30 = load double, ptr %29, align 8, !tbaa !4
  %31 = getelementptr inbounds double, ptr %22, i64 %27
  %32 = load double, ptr %31, align 8, !tbaa !4
  %33 = getelementptr inbounds double, ptr %21, i64 %28
  %34 = load double, ptr %33, align 8, !tbaa !4
  store double %34, ptr %29, align 8, !tbaa !4
  %35 = getelementptr inbounds double, ptr %22, i64 %28
  %36 = load double, ptr %35, align 8, !tbaa !4
  store double %36, ptr %31, align 8, !tbaa !4
  store double %30, ptr %33, align 8, !tbaa !4
  store double %32, ptr %35, align 8, !tbaa !4
  %37 = add i64 %.030, 1
  %exitcond.not = icmp eq i64 %.030, %17
  br i1 %exitcond.not, label %._crit_edge, label %23

._crit_edge:                                      ; preds = %23, %14
  call void @__kmpc_for_static_fini(ptr nonnull @1, i32 %.pre)
  call void @llvm.lifetime.end.p0(i64 4, ptr nonnull %11) #4
  call void @llvm.lifetime.end.p0(i64 8, ptr nonnull %10) #4
  call void @llvm.lifetime.end.p0(i64 8, ptr nonnull %9) #4
  call void @llvm.lifetime.end.p0(i64 8, ptr nonnull %8) #4
  br label %38

38:                                               ; preds = %._crit_edge, %7
  call void @__kmpc_barrier(ptr nonnull @2, i32 %.pre)
  ret void
}